; Function Attrs: nounwind uwtable
define dso_local i64 @pg_read_file_all(ptr noundef captures(none) %0) local_unnamed_addr #0 {
  %2 = getelementptr inbounds nuw i8, ptr %0, i64 32
  %3 = load i64, ptr %2, align 8
  %4 = inttoptr i64 %3 to ptr
  %5 = tail call ptr @pg_detoast_datum_packed(ptr noundef %4) #9
  %6 = tail call fastcc ptr @convert_and_check_filename(ptr noundef %5)
  %7 = tail call fastcc ptr @read_binary_file(ptr noundef %6, i64 noundef 0, i64 noundef -1, i1 noundef zeroext false)
  %.not.i.i = icmp eq ptr %7, null
  br i1 %.not.i.i, label %8, label %10

8:                                                ; preds = %1
  %9 = getelementptr inbounds nuw i8, ptr %0, i64 28
  store i8 1, ptr %9, align 4
  br label %17

10:                                               ; preds = %1
  %11 = getelementptr inbounds nuw i8, ptr %7, i64 4
  %12 = load i32, ptr %7, align 4
  %13 = lshr i32 %12, 2
  %14 = add nsw i32 %13, -4
  %15 = tail call zeroext i1 @pg_verifymbstr(ptr noundef nonnull %11, i32 noundef %14, i1 noundef zeroext false) #9
  %16 = ptrtoint ptr %7 to i64
  br label %17

17:                                               ; preds = %10, %8
  %.0 = phi i64 [ %16, %10 ], [ 0, %8 ]
  ret i64 %.0
}